; Listing generated by Microsoft (R) Optimizing Compiler Version 19.33.31630.0 

include listing.inc

INCLUDELIB MSVCRTD
INCLUDELIB OLDNAMES

msvcjmc	SEGMENT
__D0DFFAC6_winpackagefamily@h DB 01H
__D0D0F397_winapifamily@h DB 01H
__94A3FDDD_sdkddkver@h DB 01H
__529D0EAA_concurrencysal@h DB 01H
__7EC34687_sal@h DB 01H
__35A2D2DF_vadefs@h DB 01H
__5F022EB5_vcruntime@h DB 01H
__3F7A3B5F_excpt@h DB 01H
__79700276_stdarg@h DB 01H
__1C9F390F_specstrings_undef@h DB 01H
__36A21E95_specstrings_strict@h DB 01H
__452FE810_sdv_driverspecs@h DB 01H
__30F344B3_driverspecs@h DB 01H
__BD886E18_specstrings@h DB 01H
__6569C2CA_corecrt@h DB 01H
__5DB64B66_corecrt_wctype@h DB 01H
__B2D2BA86_ctype@h DB 01H
__BF9C347F_kernelspecs@h DB 01H
__79C7FC57_basetsd@h DB 01H
__CDDAF8CA_errno@h DB 01H
__74AC4223_vcruntime_string@h DB 01H
__1FEB9909_corecrt_memcpy_s@h DB 01H
__A751F051_corecrt_memory@h DB 01H
__9200769A_corecrt_wstring@h DB 01H
__32E5F013_string@h DB 01H
__D545DD43_guiddef@h DB 01H
__DF4F952E_pshpack4@h DB 01H
__7FCD0577_poppack@h DB 01H
__DBC2E99C_pshpack2@h DB 01H
__D6556C4A_pshpack8@h DB 01H
__D98457C5_pshpack1@h DB 01H
__614C4572_apiset@h DB 01H
__8500295D_ktmtypes@h DB 01H
__D5DDFBF3_winnt@h DB 01H
__156BD51A_minwindef@h DB 01H
__F9B9A8F7_windef@h DB 01H
__BD2C4590_apisetcconv@h DB 01H
__18251742_minwinbase@h DB 01H
__23611203_apiquery2@h DB 01H
__C914CD48_processenv@h DB 01H
__996311FD_fileapi@h DB 01H
__41AEF397_fileapifromapp@h DB 01H
__65579FF3_debugapi@h DB 01H
__476FCB5A_utilapiset@h DB 01H
__089D2E42_handleapi@h DB 01H
__B16F04F5_errhandlingapi@h DB 01H
__81CCB02F_fibersapi@h DB 01H
__A9B4C5F0_namedpipeapi@h DB 01H
__C209F2C8_profileapi@h DB 01H
__34C22DC8_heapapi@h DB 01H
__8A238485_ioapiset@h DB 01H
__4826BA69_synchapi@h DB 01H
__6A31599C_interlockedapi@h DB 01H
__439612F0_processthreadsapi@h DB 01H
__7BB37CFA_sysinfoapi@h DB 01H
__5733279A_memoryapi@h DB 01H
__6D078C0D_enclaveapi@h DB 01H
__3663CE50_threadpoollegacyapiset@h DB 01H
__E16717D9_threadpoolapiset@h DB 01H
__4A6035CC_jobapi@h DB 01H
__62EEB553_jobapi2@h DB 01H
__9F22E7EF_wow64apiset@h DB 01H
__E86B4A9A_libloaderapi@h DB 01H
__EB536E54_securitybaseapi@h DB 01H
__E915C287_namespaceapi@h DB 01H
__C66F44F2_systemtopologyapi@h DB 01H
__B6175B28_processtopologyapi@h DB 01H
__9E4AD838_securityappcontainer@h DB 01H
__F599FDAE_realtimeapiset@h DB 01H
__D4435474_winerror@h DB 01H
__F94F31E6_timezoneapi@h DB 01H
__B3ED30D4_winbase@h DB 01H
__E9F7D11F_wingdi@h DB 01H
__AC21C382_tvout@h DB 01H
__DB057BA3_winuser@h DB 01H
__A1BAD304_datetimeapi@h DB 01H
__30E2BD27_winnls@h DB 01H
__B7FF4B97_stringapiset@h DB 01H
__66C87297_wincontypes@h DB 01H
__1317218F_consoleapi@h DB 01H
__8D62D26D_consoleapi2@h DB 01H
__8CA0B85A_consoleapi3@h DB 01H
__CE39E65B_wincon@h DB 01H
__F6801ACC_verrsrc@h DB 01H
__1CB844D9_winver@h DB 01H
__D0CFA71C_reason@h DB 01H
__F3D58382_winreg@h DB 01H
__34C28572_wnnc@h DB 01H
__0617DE59_winnetwk@h DB 01H
__93AC9EF8_cderr@h DB 01H
__3AE29FFA_dde@h DB 01H
__48250249_ddeml@h DB 01H
__4605C6DD_dlgs@h DB 01H
__C826BBA2_lzexpand@h DB 01H
__B8DFB118_mmsyscom@h DB 01H
__EDC2A662_mciapi@h DB 01H
__87B17D5B_mmiscapi@h DB 01H
__0C4862FC_mmiscapi2@h DB 01H
__83F5D08C_playsoundapi@h DB 01H
__CA3F1D44_mmeapi@h DB 01H
__BD2270BE_timeapi@h DB 01H
__397CAA2F_joystickapi@h DB 01H
__05A21AEE_mmsystem@h DB 01H
__6E1DF0B6_nb30@h DB 01H
__75098885_rpcdcep@h DB 01H
__D8AC8DD5_rpcdce@h DB 01H
__2F1118EF_rpcnsi@h DB 01H
__0DE10DFC_rpcnterr@h DB 01H
__4497164E_rpcasync@h DB 01H
__06CA6763_rpc@h DB 01H
__C32EC2F2_shellapi@h DB 01H
__B289ECB8_winperf@h DB 01H
__07EA6B7C_inaddr@h DB 01H
__9ED0251E_winsock@h DB 01H
__FD938996_bcrypt@h DB 01H
__4E32BFB9_ncrypt@h DB 01H
__815AA9AD_dpapi@h DB 01H
__0B2E95FF_wincrypt@h DB 01H
__288F6C52_winefs@h DB 01H
__B3F2ECA2_rpcnsip@h DB 01H
__AFB43543_rpcsal@h DB 01H
__16A21838_rpcndr@h DB 01H
__5314805F_wtypesbase@h DB 01H
__6EEE3703_wtypes@h DB 01H
__A7113148_winioctl@h DB 01H
__C595A37C_winsmcrd@h DB 01H
__42C56FB7_winscard@h DB 01H
__C4703BCA_prsht@h DB 01H
__D4D77F19_winspool@h DB 01H
__6C20D4D3_corecrt_malloc@h DB 01H
__C9393812_stddef@h DB 01H
__D493B9BD_corecrt_search@h DB 01H
__1473E23E_corecrt_wstdlib@h DB 01H
__F3D99286_limits@h DB 01H
__B49664B7_stdlib@h DB 01H
__B47185B4_unknwnbase@h DB 01H
__B64C33F8_objidlbase@h DB 01H
__EA871F04_cguid@h DB 01H
__C78732AB_combaseapi@h DB 01H
__744BF5DA_unknwn@h DB 01H
__66C491E7_objidl@h DB 01H
__A217658B_oaidl@h DB 01H
__8485F416_propidlbase@h DB 01H
__65805CE1_coml2api@h DB 01H
__C7AD586F_oleidl@h DB 01H
__CBE55221_servprov@h DB 01H
__5B1E268A_msxml@h DB 01H
__1B3D3678_urlmon@h DB 01H
__EC5BC72C_propidl@h DB 01H
__0DD0E8F8_objbase@h DB 01H
__6DA674A0_oleauto@h DB 01H
__F7931962_ole2@h DB 01H
__870E9EB1_commdlg@h DB 01H
__A118E6DC_stralign@h DB 01H
__8B10FA9F_winsvc@h DB 01H
__BEDBF511_mcx@h DB 01H
__D3BCC989_ime_cmodes@h DB 01H
__B1694579_imm@h DB 01H
__4D4D253D_windows@h DB 01H
__A2143F22_corecrt_stdio_config@h DB 01H
__C6E16F6F_corecrt_wconio@h DB 01H
__CB8D9B53_corecrt_wdirect@h DB 01H
__A9063C41_corecrt_share@h DB 01H
__6D390390_corecrt_wio@h DB 01H
__61BDDCD5_corecrt_wprocess@h DB 01H
__829E1958_corecrt_wstdio@h DB 01H
__1157D6BA_corecrt_wtime@h DB 01H
__64F617E8_types@h DB 01H
__1DC1E279_stat@h DB 01H
__93DC0B45_wchar@h DB 01H
__A23411D8_tchar@h DB 01H
__16C3E9AE_소스@c DB 01H
msvcjmc	ENDS
PUBLIC	main
PUBLIC	__JustMyCode_Default
PUBLIC	??_C@_1CM@DOBFAHJB@?$AAK?$AAU?$AA?5?$AAR?$AAe?$AAv?$AAe?$AAr?$AAe?$AA?5?$AAE?$AAn?$AAg?$AAi?$AAn@ ; `string'
PUBLIC	??_C@_1BO@KCGPGLEO@?$AA2?$AA0?$AA2?$AA1?$AA3?$AA5?$AA0?$AA0?$AA2?$AA7?$AA?5?$AA?$BF?$PP?$KM?$AA?$AE@ ; `string'
EXTRN	__imp_MessageBoxW:PROC
EXTRN	_RTC_InitBase:PROC
EXTRN	_RTC_Shutdown:PROC
EXTRN	__CheckForDebuggerJustMyCode:PROC
;	COMDAT pdata
pdata	SEGMENT
$pdata$main DD	imagerel $LN3
	DD	imagerel $LN3+64
	DD	imagerel $unwind$main
pdata	ENDS
;	COMDAT rtc$TMZ
rtc$TMZ	SEGMENT
_RTC_Shutdown.rtc$TMZ DQ FLAT:_RTC_Shutdown
rtc$TMZ	ENDS
;	COMDAT rtc$IMZ
rtc$IMZ	SEGMENT
_RTC_InitBase.rtc$IMZ DQ FLAT:_RTC_InitBase
rtc$IMZ	ENDS
;	COMDAT ??_C@_1BO@KCGPGLEO@?$AA2?$AA0?$AA2?$AA1?$AA3?$AA5?$AA0?$AA0?$AA2?$AA7?$AA?5?$AA?$BF?$PP?$KM?$AA?$AE@
CONST	SEGMENT
??_C@_1BO@KCGPGLEO@?$AA2?$AA0?$AA2?$AA1?$AA3?$AA5?$AA0?$AA0?$AA2?$AA7?$AA?5?$AA?$BF?$PP?$KM?$AA?$AE@ DB '2'
	DB	00H, '0', 00H, '2', 00H, '1', 00H, '3', 00H, '5', 00H, '0', 00H
	DB	'0', 00H, '2', 00H, '7', 00H, ' ', 00H, 015H, 0acH, 0acH, 0c7H
	DB	04H, 0d6H, 00H, 00H				; `string'
CONST	ENDS
;	COMDAT ??_C@_1CM@DOBFAHJB@?$AAK?$AAU?$AA?5?$AAR?$AAe?$AAv?$AAe?$AAr?$AAe?$AA?5?$AAE?$AAn?$AAg?$AAi?$AAn@
CONST	SEGMENT
??_C@_1CM@DOBFAHJB@?$AAK?$AAU?$AA?5?$AAR?$AAe?$AAv?$AAe?$AAr?$AAe?$AA?5?$AAE?$AAn?$AAg?$AAi?$AAn@ DB 'K'
	DB	00H, 'U', 00H, ' ', 00H, 'R', 00H, 'e', 00H, 'v', 00H, 'e', 00H
	DB	'r', 00H, 'e', 00H, ' ', 00H, 'E', 00H, 'n', 00H, 'g', 00H, 'i'
	DB	00H, 'n', 00H, 'e', 00H, 'e', 00H, 'r', 00H, 'i', 00H, 'n', 00H
	DB	'g', 00H, 00H, 00H				; `string'
CONST	ENDS
;	COMDAT xdata
xdata	SEGMENT
$unwind$main DD	025050f01H
	DD	010a230fH
	DD	07003001dH
	DD	05002H
xdata	ENDS
; Function compile flags: /Odt
;	COMDAT __JustMyCode_Default
_TEXT	SEGMENT
__JustMyCode_Default PROC				; COMDAT
  00000	c2 00 00	 ret	 0
__JustMyCode_Default ENDP
_TEXT	ENDS
; Function compile flags: /Odtp /RTCsu /ZI
; File C:\Users\kangj\바탕 화면\역공학\MessageBox\MessageBox\소스.c
;	COMDAT main
_TEXT	SEGMENT
main	PROC						; COMDAT

; 5    : {

$LN3:
  00000	40 55		 push	 rbp
  00002	57		 push	 rdi
  00003	48 81 ec e8 00
	00 00		 sub	 rsp, 232		; 000000e8H
  0000a	48 8d 6c 24 20	 lea	 rbp, QWORD PTR [rsp+32]
  0000f	48 8d 0d 00 00
	00 00		 lea	 rcx, OFFSET FLAT:__16C3E9AE_소스@c
  00016	e8 00 00 00 00	 call	 __CheckForDebuggerJustMyCode

; 6    : 	MessageBoxW(0, _T("2021350027 강재현"), _T("KU Revere Engineering"), MB_OK);

  0001b	45 33 c9	 xor	 r9d, r9d
  0001e	4c 8d 05 00 00
	00 00		 lea	 r8, OFFSET FLAT:??_C@_1CM@DOBFAHJB@?$AAK?$AAU?$AA?5?$AAR?$AAe?$AAv?$AAe?$AAr?$AAe?$AA?5?$AAE?$AAn?$AAg?$AAi?$AAn@
  00025	48 8d 15 00 00
	00 00		 lea	 rdx, OFFSET FLAT:??_C@_1BO@KCGPGLEO@?$AA2?$AA0?$AA2?$AA1?$AA3?$AA5?$AA0?$AA0?$AA2?$AA7?$AA?5?$AA?$BF?$PP?$KM?$AA?$AE@
  0002c	33 c9		 xor	 ecx, ecx
  0002e	ff 15 00 00 00
	00		 call	 QWORD PTR __imp_MessageBoxW

; 7    : }

  00034	33 c0		 xor	 eax, eax
  00036	48 8d a5 c8 00
	00 00		 lea	 rsp, QWORD PTR [rbp+200]
  0003d	5f		 pop	 rdi
  0003e	5d		 pop	 rbp
  0003f	c3		 ret	 0
main	ENDP
_TEXT	ENDS
END
